target datalayout = "e-m:e-p270:32:32-p271:32:32-p272:64:64-i64:64-i128:128-f80:128-n8:16:32:64-S128"
target triple = "x86_64-unknown-linux-gnu"

%"class.v8::IndirectHandleBase" = type { ptr }
%"class.v8::Global.0" = type { %"class.v8::PersistentBase.1" }
%"class.v8::PersistentBase.1" = type { %"class.v8::IndirectHandleBase" }
%"class.v8impl::RefTracker" = type { ptr, ptr, ptr }
%"class.v8impl::Finalizer" = type { ptr, ptr, ptr, ptr, ptr }
%"class.v8impl::RefBase" = type { %"class.v8impl::TrackedFinalizer", i32, i32 }
%"class.v8impl::TrackedFinalizer" = type { %"class.v8impl::Finalizer", %"class.v8impl::RefTracker" }
%"class.v8impl::Reference" = type <{ %"class.v8impl::RefBase", %"class.v8::Global.0", i8, [7 x i8] }>

; Function Attrs: mustprogress nounwind uwtable
define dso_local noundef i32 @_ZN6v8impl7RefBase3RefEv(ptr noundef nonnull align 8 dereferenceable(72) %this) #4 align 2 {
entry:
  %this.addr = alloca ptr, align 8
  store ptr %this, ptr %this.addr, align 8
  %this1 = load ptr, ptr %this.addr, align 8
  %refcount_ = getelementptr inbounds %"class.v8impl::RefBase", ptr %this1, i32 0, i32 1
  %0 = load i32, ptr %refcount_, align 8
  %inc = add i32 %0, 1
  store i32 %inc, ptr %refcount_, align 8
  ret i32 %inc
}

; Function Attrs: mustprogress nounwind uwtable
define dso_local noundef i32 @_ZN6v8impl9Reference3RefEv(ptr noundef nonnull align 8 dereferenceable(81) %this) #4 align 2 {
entry:
  %this.addr.i.i = alloca ptr, align 8
  %this.addr.i8 = alloca ptr, align 8
  %this.addr.i6 = alloca ptr, align 8
  %this.addr.i = alloca ptr, align 8
  %retval = alloca i32, align 4
  %this.addr = alloca ptr, align 8
  %refcount = alloca i32, align 4
  store ptr %this, ptr %this.addr, align 8
  %this1 = load ptr, ptr %this.addr, align 8
  %persistent_ = getelementptr inbounds %"class.v8impl::Reference", ptr %this1, i32 0, i32 1
  store ptr %persistent_, ptr %this.addr.i, align 8
  %this1.i = load ptr, ptr %this.addr.i, align 8
  %0 = load ptr, ptr %this1.i, align 8
  %cmp.i = icmp eq ptr %0, null
  br i1 %cmp.i, label %if.then, label %if.end

if.then:                                          ; preds = %entry
  store i32 0, ptr %retval, align 4
  br label %return

if.end:                                           ; preds = %entry
  %call2 = call noundef i32 @_ZN6v8impl7RefBase3RefEv(ptr noundef nonnull align 8 dereferenceable(72) %this1)
  store i32 %call2, ptr %refcount, align 4
  %1 = load i32, ptr %refcount, align 4
  %cmp = icmp eq i32 %1, 1
  br i1 %cmp, label %land.lhs.true, label %if.end5

land.lhs.true:                                    ; preds = %if.end
  %can_be_weak_ = getelementptr inbounds %"class.v8impl::Reference", ptr %this1, i32 0, i32 2
  %2 = load i8, ptr %can_be_weak_, align 8
  %tobool = trunc i8 %2 to i1
  br i1 %tobool, label %if.then3, label %if.end5

if.then3:                                         ; preds = %land.lhs.true
  %persistent_4 = getelementptr inbounds %"class.v8impl::Reference", ptr %this1, i32 0, i32 1
  store ptr %persistent_4, ptr %this.addr.i6, align 8
  %this1.i7 = load ptr, ptr %this.addr.i6, align 8
  store ptr %this1.i7, ptr %this.addr.i8, align 8
  %this1.i9 = load ptr, ptr %this.addr.i8, align 8
  store ptr %this1.i9, ptr %this.addr.i.i, align 8
  %this1.i.i = load ptr, ptr %this.addr.i.i, align 8
  %3 = load ptr, ptr %this1.i.i, align 8
  %call2.i = call noundef ptr @_ZN2v812api_internal9ClearWeakEPm(ptr noundef %3) #3
  br label %if.end5

if.end5:                                          ; preds = %if.then3, %land.lhs.true, %if.end
  %4 = load i32, ptr %refcount, align 4
  store i32 %4, ptr %retval, align 4
  br label %return

return:                                           ; preds = %if.end5, %if.then
  %5 = load i32, ptr %retval, align 4
  ret i32 %5
}