; Function Attrs: mustprogress nounwind uwtable
define dso_local noundef i32 @_ZN6v8impl9Reference3RefEv(ptr nocapture noundef nonnull align 8 dereferenceable(81) %this) local_unnamed_addr #3 align 2 {
entry:
  %persistent_ = getelementptr inbounds i8, ptr %this, i64 72
  %0 = load ptr, ptr %persistent_, align 8
  %cmp.i = icmp eq ptr %0, null
  br i1 %cmp.i, label %return, label %if.end

if.end:                                           ; preds = %entry
  %refcount_.i = getelementptr inbounds i8, ptr %this, i64 64
  %1 = load i32, ptr %refcount_.i, align 8
  %inc.i = add i32 %1, 1
  store i32 %inc.i, ptr %refcount_.i, align 8
  %cmp = icmp eq i32 %1, 0
  br i1 %cmp, label %land.lhs.true, label %return

land.lhs.true:                                    ; preds = %if.end
  %can_be_weak_ = getelementptr inbounds i8, ptr %this, i64 80
  %2 = load i8, ptr %can_be_weak_, align 8
  %3 = and i8 %2, 1
  %tobool.not = icmp eq i8 %3, 0
  br i1 %tobool.not, label %return, label %if.then3

if.then3:                                         ; preds = %land.lhs.true
  %call2.i = tail call noundef ptr @_ZN2v812api_internal9ClearWeakEPm(ptr noundef nonnull %0) #24
  br label %return

return:                                           ; preds = %if.end, %land.lhs.true, %if.then3, %entry
  %retval.0 = phi i32 [ 0, %entry ], [ 1, %if.then3 ], [ 1, %land.lhs.true ], [ %inc.i, %if.end ]
  ret i32 %retval.0
}